target datalayout = "e-m:e-p270:32:32-p271:32:32-p272:64:64-i64:64-i128:128-f80:128-n8:16:32:64-S128"
target triple = "x86_64-pc-linux-gnu"

%"class.cv::Mat" = type { i32, i32, i32, i32, ptr, ptr, ptr, ptr, ptr, ptr, %"struct.cv::MatSize", %"struct.cv::MatStep" }
%"struct.cv::MatSize" = type { ptr }
%"struct.cv::MatStep" = type { ptr, [2 x i64] }

; Function Attrs: inlinehint mustprogress nounwind uwtable
define linkonce_odr hidden noundef i64 @_ZNK2cv3Mat8elemSizeEv(ptr noundef nonnull align 8 dereferenceable(96) %0) #6 comdat align 2 {
  %2 = alloca ptr, align 8
  %3 = alloca i64, align 8
  store ptr %0, ptr %2, align 8, !tbaa !34
  %4 = load ptr, ptr %2, align 8
  call void @llvm.lifetime.start.p0(i64 8, ptr %3) #7
  %5 = getelementptr inbounds nuw %"class.cv::Mat", ptr %4, i32 0, i32 1
  %6 = load i32, ptr %5, align 4, !tbaa !72
  %7 = icmp sgt i32 %6, 0
  br i1 %7, label %8, label %18

8:                                                ; preds = %1
  %9 = getelementptr inbounds nuw %"class.cv::Mat", ptr %4, i32 0, i32 11
  %10 = getelementptr inbounds nuw %"struct.cv::MatStep", ptr %9, i32 0, i32 0
  %11 = load ptr, ptr %10, align 8, !tbaa !75
  %12 = getelementptr inbounds nuw %"class.cv::Mat", ptr %4, i32 0, i32 1
  %13 = load i32, ptr %12, align 4, !tbaa !72
  %14 = sub nsw i32 %13, 1
  %15 = sext i32 %14 to i64
  %16 = getelementptr inbounds i64, ptr %11, i64 %15
  %17 = load i64, ptr %16, align 8, !tbaa !31
  br label %19

18:                                               ; preds = %1
  br label %19

19:                                               ; preds = %18, %8
  %20 = phi i64 [ %17, %8 ], [ 0, %18 ]
  store i64 %20, ptr %3, align 8, !tbaa !31
  %21 = load i64, ptr %3, align 8, !tbaa !31
  call void @llvm.lifetime.end.p0(i64 8, ptr %3) #7
  ret i64 %21
}

; Function Attrs: inlinehint mustprogress nounwind uwtable
define linkonce_odr noundef nonnull align 8 dereferenceable(8) ptr @_ZSt3maxImERKT_S2_S2_(ptr noundef nonnull align 8 dereferenceable(8) %0, ptr noundef nonnull align 8 dereferenceable(8) %1) #6 comdat {
  %3 = alloca ptr, align 8
  %4 = alloca ptr, align 8
  %5 = alloca ptr, align 8
  store ptr %0, ptr %4, align 8, !tbaa !27
  store ptr %1, ptr %5, align 8, !tbaa !27
  %6 = load ptr, ptr %4, align 8, !tbaa !27
  %7 = load i64, ptr %6, align 8, !tbaa !31
  %8 = load ptr, ptr %5, align 8, !tbaa !27
  %9 = load i64, ptr %8, align 8, !tbaa !31
  %10 = icmp ult i64 %7, %9
  br i1 %10, label %11, label %13

11:                                               ; preds = %2
  %12 = load ptr, ptr %5, align 8, !tbaa !27
  store ptr %12, ptr %3, align 8
  br label %15

13:                                               ; preds = %2
  %14 = load ptr, ptr %4, align 8, !tbaa !27
  store ptr %14, ptr %3, align 8
  br label %15

15:                                               ; preds = %13, %11
  %16 = load ptr, ptr %3, align 8
  ret ptr %16
}

; Function Attrs: inlinehint mustprogress nounwind uwtable
define linkonce_odr hidden noundef zeroext i1 @_ZNK2cv3Mat11isSubmatrixEv(ptr noundef nonnull align 8 dereferenceable(96) %0) #6 comdat align 2 {
  %2 = alloca ptr, align 8
  store ptr %0, ptr %2, align 8, !tbaa !34
  %3 = load ptr, ptr %2, align 8
  %4 = getelementptr inbounds nuw %"class.cv::Mat", ptr %3, i32 0, i32 0
  %5 = load i32, ptr %4, align 8, !tbaa !79
  %6 = and i32 %5, 32768
  %7 = icmp ne i32 %6, 0
  ret i1 %7
}

; Function Attrs: mustprogress uwtable
define void @_ZN2cv3Mat10push_back_EPKv(ptr noundef nonnull align 8 dereferenceable(96) %0, ptr noundef %1) #1 align 2 {
  %3 = alloca ptr, align 8
  %4 = alloca ptr, align 8
  %5 = alloca i64, align 8
  %6 = alloca i64, align 8
  %7 = alloca i64, align 8
  %8 = alloca i64, align 8
  %9 = alloca i64, align 8
  %10 = alloca i32, align 4
  store ptr %0, ptr %3, align 8, !tbaa !34
  store ptr %1, ptr %4, align 8, !tbaa !25
  %11 = load ptr, ptr %3, align 8
  call void @llvm.lifetime.start.p0(i64 8, ptr %5) #7
  %12 = getelementptr inbounds nuw %"class.cv::Mat", ptr %11, i32 0, i32 10
  %13 = getelementptr inbounds nuw %"struct.cv::MatSize", ptr %12, i32 0, i32 0
  %14 = load ptr, ptr %13, align 8, !tbaa !76
  %15 = getelementptr inbounds i32, ptr %14, i64 0
  %16 = load i32, ptr %15, align 4, !tbaa !26
  %17 = sext i32 %16 to i64
  store i64 %17, ptr %5, align 8, !tbaa !31
  %18 = call noundef zeroext i1 @_ZNK2cv3Mat11isSubmatrixEv(ptr noundef nonnull align 8 dereferenceable(96) %11)
  br i1 %18, label %31, label %19

19:                                               ; preds = %2
  %20 = getelementptr inbounds nuw %"class.cv::Mat", ptr %11, i32 0, i32 6
  %21 = load ptr, ptr %20, align 8, !tbaa !92
  %22 = getelementptr inbounds nuw %"class.cv::Mat", ptr %11, i32 0, i32 11
  %23 = getelementptr inbounds nuw %"struct.cv::MatStep", ptr %22, i32 0, i32 0
  %24 = load ptr, ptr %23, align 8, !tbaa !75
  %25 = getelementptr inbounds i64, ptr %24, i64 0
  %26 = load i64, ptr %25, align 8, !tbaa !31
  %27 = getelementptr inbounds nuw i8, ptr %21, i64 %26
  %28 = getelementptr inbounds nuw %"class.cv::Mat", ptr %11, i32 0, i32 7
  %29 = load ptr, ptr %28, align 8, !tbaa !91
  %30 = icmp ugt ptr %27, %29
  br i1 %30, label %31, label %40

31:                                               ; preds = %19, %2
  call void @llvm.lifetime.start.p0(i64 8, ptr %6) #7
  %32 = load i64, ptr %5, align 8, !tbaa !31
  %33 = add i64 %32, 1
  store i64 %33, ptr %6, align 8, !tbaa !31
  call void @llvm.lifetime.start.p0(i64 8, ptr %7) #7
  %34 = load i64, ptr %5, align 8, !tbaa !31
  %35 = mul i64 %34, 3
  %36 = add i64 %35, 1
  %37 = udiv i64 %36, 2
  store i64 %37, ptr %7, align 8, !tbaa !31
  %38 = call noundef nonnull align 8 dereferenceable(8) ptr @_ZSt3maxImERKT_S2_S2_(ptr noundef nonnull align 8 dereferenceable(8) %6, ptr noundef nonnull align 8 dereferenceable(8) %7)
  %39 = load i64, ptr %38, align 8, !tbaa !31
  call void @_ZN2cv3Mat7reserveEm(ptr noundef nonnull align 8 dereferenceable(96) %11, i64 noundef %39)
  call void @llvm.lifetime.end.p0(i64 8, ptr %7) #7
  call void @llvm.lifetime.end.p0(i64 8, ptr %6) #7
  br label %40

40:                                               ; preds = %31, %19
  call void @llvm.lifetime.start.p0(i64 8, ptr %8) #7
  %41 = call noundef i64 @_ZNK2cv3Mat8elemSizeEv(ptr noundef nonnull align 8 dereferenceable(96) %11)
  store i64 %41, ptr %8, align 8, !tbaa !31
  %42 = getelementptr inbounds nuw %"class.cv::Mat", ptr %11, i32 0, i32 4
  %43 = load ptr, ptr %42, align 8, !tbaa !89
  %44 = load i64, ptr %5, align 8, !tbaa !31
  %45 = getelementptr inbounds nuw %"class.cv::Mat", ptr %11, i32 0, i32 11
  %46 = getelementptr inbounds nuw %"struct.cv::MatStep", ptr %45, i32 0, i32 0
  %47 = load ptr, ptr %46, align 8, !tbaa !75
  %48 = getelementptr inbounds i64, ptr %47, i64 0
  %49 = load i64, ptr %48, align 8, !tbaa !31
  %50 = mul i64 %44, %49
  %51 = getelementptr inbounds nuw i8, ptr %43, i64 %50
  %52 = load ptr, ptr %4, align 8, !tbaa !25
  %53 = load i64, ptr %8, align 8, !tbaa !31
  call void @llvm.memcpy.p0.p0.i64(ptr align 1 %51, ptr align 1 %52, i64 %53, i1 false)
  %54 = load i64, ptr %5, align 8, !tbaa !31
  %55 = add i64 %54, 1
  %56 = trunc i64 %55 to i32
  %57 = getelementptr inbounds nuw %"class.cv::Mat", ptr %11, i32 0, i32 10
  %58 = getelementptr inbounds nuw %"struct.cv::MatSize", ptr %57, i32 0, i32 0
  %59 = load ptr, ptr %58, align 8, !tbaa !76
  %60 = getelementptr inbounds i32, ptr %59, i64 0
  store i32 %56, ptr %60, align 4, !tbaa !26
  %61 = getelementptr inbounds nuw %"class.cv::Mat", ptr %11, i32 0, i32 11
  %62 = getelementptr inbounds nuw %"struct.cv::MatStep", ptr %61, i32 0, i32 0
  %63 = load ptr, ptr %62, align 8, !tbaa !75
  %64 = getelementptr inbounds i64, ptr %63, i64 0
  %65 = load i64, ptr %64, align 8, !tbaa !31
  %66 = getelementptr inbounds nuw %"class.cv::Mat", ptr %11, i32 0, i32 6
  %67 = load ptr, ptr %66, align 8, !tbaa !92
  %68 = getelementptr inbounds nuw i8, ptr %67, i64 %65
  store ptr %68, ptr %66, align 8, !tbaa !92
  call void @llvm.lifetime.start.p0(i64 8, ptr %9) #7
  %69 = getelementptr inbounds nuw %"class.cv::Mat", ptr %11, i32 0, i32 10
  %70 = getelementptr inbounds nuw %"struct.cv::MatSize", ptr %69, i32 0, i32 0
  %71 = load ptr, ptr %70, align 8, !tbaa !76
  %72 = getelementptr inbounds i32, ptr %71, i64 0
  %73 = load i32, ptr %72, align 4, !tbaa !26
  %74 = sext i32 %73 to i64
  store i64 %74, ptr %9, align 8, !tbaa !31
  call void @llvm.lifetime.start.p0(i64 4, ptr %10) #7
  store i32 1, ptr %10, align 4, !tbaa !26
  br label %75

75:                                               ; preds = %92, %40
  %76 = load i32, ptr %10, align 4, !tbaa !26
  %77 = getelementptr inbounds nuw %"class.cv::Mat", ptr %11, i32 0, i32 1
  %78 = load i32, ptr %77, align 4, !tbaa !72
  %79 = icmp slt i32 %76, %78
  br i1 %79, label %81, label %80

80:                                               ; preds = %75
  call void @llvm.lifetime.end.p0(i64 4, ptr %10) #7
  br label %95

81:                                               ; preds = %75
  %82 = getelementptr inbounds nuw %"class.cv::Mat", ptr %11, i32 0, i32 10
  %83 = getelementptr inbounds nuw %"struct.cv::MatSize", ptr %82, i32 0, i32 0
  %84 = load ptr, ptr %83, align 8, !tbaa !76
  %85 = load i32, ptr %10, align 4, !tbaa !26
  %86 = sext i32 %85 to i64
  %87 = getelementptr inbounds i32, ptr %84, i64 %86
  %88 = load i32, ptr %87, align 4, !tbaa !26
  %89 = sext i32 %88 to i64
  %90 = load i64, ptr %9, align 8, !tbaa !31
  %91 = mul i64 %90, %89
  store i64 %91, ptr %9, align 8, !tbaa !31
  br label %92

92:                                               ; preds = %81
  %93 = load i32, ptr %10, align 4, !tbaa !26
  %94 = add nsw i32 %93, 1
  store i32 %94, ptr %10, align 4, !tbaa !26
  br label %75, !llvm.loop !144

95:                                               ; preds = %80
  %96 = load i64, ptr %8, align 8, !tbaa !31
  %97 = getelementptr inbounds nuw %"class.cv::Mat", ptr %11, i32 0, i32 11
  %98 = getelementptr inbounds nuw %"struct.cv::MatStep", ptr %97, i32 0, i32 0
  %99 = load ptr, ptr %98, align 8, !tbaa !75
  %100 = getelementptr inbounds i64, ptr %99, i64 0
  %101 = load i64, ptr %100, align 8, !tbaa !31
  %102 = icmp ult i64 %96, %101
  br i1 %102, label %109, label %103

103:                                              ; preds = %95
  %104 = load i64, ptr %9, align 8, !tbaa !31
  %105 = load i64, ptr %9, align 8, !tbaa !31
  %106 = trunc i64 %105 to i32
  %107 = sext i32 %106 to i64
  %108 = icmp ne i64 %104, %107
  br i1 %108, label %109, label %113

109:                                              ; preds = %103, %95
  %110 = getelementptr inbounds nuw %"class.cv::Mat", ptr %11, i32 0, i32 0
  %111 = load i32, ptr %110, align 8, !tbaa !79
  %112 = and i32 %111, -16385
  store i32 %112, ptr %110, align 8, !tbaa !79
  br label %113

113:                                              ; preds = %109, %103
  call void @llvm.lifetime.end.p0(i64 8, ptr %9) #7
  call void @llvm.lifetime.end.p0(i64 8, ptr %8) #7
  call void @llvm.lifetime.end.p0(i64 8, ptr %5) #7
  ret void
}