; Function Attrs: mustprogress uwtable
define void @_ZN2cv3Mat10push_back_EPKv(ptr noundef nonnull align 8 dereferenceable(96) %0, ptr noundef readonly captures(none) %1) local_unnamed_addr #1 align 2 {
  %3 = getelementptr inbounds nuw i8, ptr %0, i64 64
  %4 = load ptr, ptr %3, align 8, !tbaa !58
  %5 = load i32, ptr %4, align 4, !tbaa !23
  %6 = sext i32 %5 to i64
  %7 = load i32, ptr %0, align 8, !tbaa !61
  %8 = and i32 %7, 32768
  %.not17 = icmp eq i32 %8, 0
  br i1 %.not17, label %9, label %19

9:                                                ; preds = %2
  %10 = getelementptr inbounds nuw i8, ptr %0, i64 32
  %11 = load ptr, ptr %10, align 8, !tbaa !70
  %12 = getelementptr inbounds nuw i8, ptr %0, i64 72
  %13 = load ptr, ptr %12, align 8, !tbaa !57
  %14 = load i64, ptr %13, align 8, !tbaa !22
  %15 = getelementptr inbounds nuw i8, ptr %11, i64 %14
  %16 = getelementptr inbounds nuw i8, ptr %0, i64 40
  %17 = load ptr, ptr %16, align 8, !tbaa !69
  %18 = icmp ugt ptr %15, %17
  br i1 %18, label %19, label %24

19:                                               ; preds = %9, %2
  %20 = add nsw i64 %6, 1
  %21 = mul nsw i64 %6, 3
  %22 = add nsw i64 %21, 1
  %23 = lshr i64 %22, 1
  %.sroa.speculated = tail call i64 @llvm.umax.i64(i64 %20, i64 %23)
  tail call void @_ZN2cv3Mat7reserveEm(ptr noundef nonnull align 8 dereferenceable(96) %0, i64 noundef %.sroa.speculated)
  br label %24

24:                                               ; preds = %19, %9
  %25 = getelementptr inbounds nuw i8, ptr %0, i64 4
  %26 = load i32, ptr %25, align 4, !tbaa !53
  %27 = icmp sgt i32 %26, 0
  %28 = getelementptr inbounds nuw i8, ptr %0, i64 72
  %29 = load ptr, ptr %28, align 8, !tbaa !57
  br i1 %27, label %30, label %_ZNK2cv3Mat8elemSizeEv.exit

30:                                               ; preds = %24
  %31 = zext nneg i32 %26 to i64
  %32 = getelementptr i64, ptr %29, i64 %31
  %33 = getelementptr i8, ptr %32, i64 -8
  %34 = load i64, ptr %33, align 8, !tbaa !22
  br label %_ZNK2cv3Mat8elemSizeEv.exit

_ZNK2cv3Mat8elemSizeEv.exit:                      ; preds = %24, %30
  %35 = phi i64 [ %34, %30 ], [ 0, %24 ]
  %36 = getelementptr inbounds nuw i8, ptr %0, i64 16
  %37 = load ptr, ptr %36, align 8, !tbaa !67
  %38 = getelementptr inbounds nuw i8, ptr %0, i64 72
  %39 = load i64, ptr %29, align 8, !tbaa !22
  %40 = mul i64 %39, %6
  %41 = getelementptr inbounds nuw i8, ptr %37, i64 %40
  tail call void @llvm.memcpy.p0.p0.i64(ptr align 1 %41, ptr align 1 %1, i64 %35, i1 false)
  %42 = add i32 %5, 1
  %43 = load ptr, ptr %3, align 8, !tbaa !58
  store i32 %42, ptr %43, align 4, !tbaa !23
  %44 = load ptr, ptr %38, align 8, !tbaa !57
  %45 = load i64, ptr %44, align 8, !tbaa !22
  %46 = getelementptr inbounds nuw i8, ptr %0, i64 32
  %47 = load ptr, ptr %46, align 8, !tbaa !70
  %48 = getelementptr inbounds nuw i8, ptr %47, i64 %45
  store ptr %48, ptr %46, align 8, !tbaa !70
  %49 = sext i32 %42 to i64
  %50 = load i32, ptr %25, align 4, !tbaa !53
  %51 = icmp sgt i32 %50, 1
  br i1 %51, label %.lr.ph.preheader, label %._crit_edge

.lr.ph.preheader:                                 ; preds = %_ZNK2cv3Mat8elemSizeEv.exit
  %wide.trip.count = zext nneg i32 %50 to i64
  br label %.lr.ph

._crit_edge:                                      ; preds = %.lr.ph, %_ZNK2cv3Mat8elemSizeEv.exit
  %.013.lcssa = phi i64 [ %49, %_ZNK2cv3Mat8elemSizeEv.exit ], [ %57, %.lr.ph ]
  %52 = icmp uge i64 %35, %45
  %53 = add i64 %.013.lcssa, 2147483648
  %.not = icmp ult i64 %53, 4294967296
  %or.cond = select i1 %52, i1 %.not, i1 false
  br i1 %or.cond, label %61, label %58

.lr.ph:                                           ; preds = %.lr.ph.preheader, %.lr.ph
  %indvars.iv = phi i64 [ 1, %.lr.ph.preheader ], [ %indvars.iv.next, %.lr.ph ]
  %.01318 = phi i64 [ %49, %.lr.ph.preheader ], [ %57, %.lr.ph ]
  %54 = getelementptr inbounds nuw i32, ptr %43, i64 %indvars.iv
  %55 = load i32, ptr %54, align 4, !tbaa !23
  %56 = sext i32 %55 to i64
  %57 = mul i64 %.01318, %56
  %indvars.iv.next = add nuw nsw i64 %indvars.iv, 1
  %exitcond.not = icmp eq i64 %indvars.iv.next, %wide.trip.count
  br i1 %exitcond.not, label %._crit_edge, label %.lr.ph, !llvm.loop !109

58:                                               ; preds = %._crit_edge
  %59 = load i32, ptr %0, align 8, !tbaa !61
  %60 = and i32 %59, -16385
  store i32 %60, ptr %0, align 8, !tbaa !61
  br label %61

61:                                               ; preds = %._crit_edge, %58
  ret void
}